target datalayout = "e-m:e-p270:32:32-p271:32:32-p272:64:64-i64:64-i128:128-f80:128-n8:16:32:64-S128"
target triple = "x86_64-pc-linux-gnu"

%"class.std::__cxx11::basic_string" = type { %"struct.std::__cxx11::basic_string<char>::_Alloc_hider", i64, %union.anon }
%"struct.std::__cxx11::basic_string<char>::_Alloc_hider" = type { ptr }
%union.anon = type { i64, [8 x i8] }
%"struct.osgeo::proj::ExtentAndRes" = type { i8, double, double, double, double, double, double, double, double }
%"class.osgeo::proj::Grid" = type { ptr, %"class.std::__cxx11::basic_string", i32, i32, %"struct.osgeo::proj::ExtentAndRes" }
%"class.std::unique_ptr.61" = type { %"struct.std::__uniq_ptr_data.62" }
%"struct.std::__uniq_ptr_data.62" = type { %"class.std::__uniq_ptr_impl.63" }
%"class.std::__uniq_ptr_impl.63" = type { %"class.std::tuple.64" }
%"class.std::tuple.64" = type { %"struct.std::_Tuple_impl.65" }
%"struct.std::_Tuple_impl.65" = type { %"struct.std::_Head_base.68" }
%"struct.std::_Head_base.68" = type { ptr }
%"class.osgeo::proj::HorizontalShiftGrid" = type { %"class.osgeo::proj::Grid", %"class.std::vector.124" }
%"class.std::vector.124" = type { %"struct.std::_Vector_base.125" }
%"struct.std::_Vector_base.125" = type { %"struct.std::_Vector_base<std::unique_ptr<osgeo::proj::HorizontalShiftGrid>, std::allocator<std::unique_ptr<osgeo::proj::HorizontalShiftGrid>>>::_Vector_impl" }
%"struct.std::_Vector_base<std::unique_ptr<osgeo::proj::HorizontalShiftGrid>, std::allocator<std::unique_ptr<osgeo::proj::HorizontalShiftGrid>>>::_Vector_impl" = type { %"struct.std::_Vector_base<std::unique_ptr<osgeo::proj::HorizontalShiftGrid>, std::allocator<std::unique_ptr<osgeo::proj::HorizontalShiftGrid>>>::_Vector_impl_data" }
%"struct.std::_Vector_base<std::unique_ptr<osgeo::proj::HorizontalShiftGrid>, std::allocator<std::unique_ptr<osgeo::proj::HorizontalShiftGrid>>>::_Vector_impl_data" = type { ptr, ptr, ptr }
%"class.osgeo::proj::GTiffHGrid" = type <{ %"class.osgeo::proj::HorizontalShiftGrid", %"class.std::unique_ptr.61", i16, i16, [4 x i8], double, i8, [7 x i8] }>

; Function Attrs: mustprogress nounwind uwtable
define linkonce_odr hidden noundef nonnull align 8 dereferenceable(8) ptr @_ZNSt10_Head_baseILm0EPN5osgeo4proj9GTiffGridELb0EE7_M_headERKS4_(ptr noundef nonnull align 8 dereferenceable(8) %0) #0 comdat align 2 {
  %2 = alloca ptr, align 8
  store ptr %0, ptr %2, align 8, !tbaa !690
  %3 = load ptr, ptr %2, align 8, !tbaa !690
  %4 = getelementptr inbounds nuw %"struct.std::_Head_base.68", ptr %3, i32 0, i32 0
  ret ptr %4
}

; Function Attrs: mustprogress nounwind uwtable
define linkonce_odr hidden noundef nonnull align 8 dereferenceable(8) ptr @_ZNSt11_Tuple_implILm0EJPN5osgeo4proj9GTiffGridESt14default_deleteIS2_EEE7_M_headERKS6_(ptr noundef nonnull align 8 dereferenceable(8) %0) #0 comdat align 2 {
  %2 = alloca ptr, align 8
  store ptr %0, ptr %2, align 8, !tbaa !686
  %3 = load ptr, ptr %2, align 8, !tbaa !686
  %4 = call noundef nonnull align 8 dereferenceable(8) ptr @_ZNSt10_Head_baseILm0EPN5osgeo4proj9GTiffGridELb0EE7_M_headERKS4_(ptr noundef nonnull align 8 dereferenceable(8) %3) #6
  ret ptr %4
}

; Function Attrs: mustprogress nounwind uwtable
define linkonce_odr hidden noundef nonnull align 8 dereferenceable(8) ptr @_ZSt12__get_helperILm0EPN5osgeo4proj9GTiffGridEJSt14default_deleteIS2_EEERKT0_RKSt11_Tuple_implIXT_EJS6_DpT1_EE(ptr noundef nonnull align 8 dereferenceable(8) %0) #0 comdat {
  %2 = alloca ptr, align 8
  store ptr %0, ptr %2, align 8, !tbaa !686
  %3 = load ptr, ptr %2, align 8, !tbaa !686
  %4 = call noundef nonnull align 8 dereferenceable(8) ptr @_ZNSt11_Tuple_implILm0EJPN5osgeo4proj9GTiffGridESt14default_deleteIS2_EEE7_M_headERKS6_(ptr noundef nonnull align 8 dereferenceable(8) %3) #6
  ret ptr %4
}

; Function Attrs: mustprogress nounwind uwtable
define linkonce_odr hidden noundef nonnull align 8 dereferenceable(8) ptr @_ZSt3getILm0EJPN5osgeo4proj9GTiffGridESt14default_deleteIS2_EEERKNSt13tuple_elementIXT_ESt5tupleIJDpT0_EEE4typeERKSA_(ptr noundef nonnull align 8 dereferenceable(8) %0) #0 comdat {
  %2 = alloca ptr, align 8
  store ptr %0, ptr %2, align 8, !tbaa !684
  %3 = load ptr, ptr %2, align 8, !tbaa !684
  %4 = call noundef nonnull align 8 dereferenceable(8) ptr @_ZSt12__get_helperILm0EPN5osgeo4proj9GTiffGridEJSt14default_deleteIS2_EEERKT0_RKSt11_Tuple_implIXT_EJS6_DpT1_EE(ptr noundef nonnull align 8 dereferenceable(8) %3) #6
  ret ptr %4
}

; Function Attrs: mustprogress nounwind uwtable
define linkonce_odr hidden noundef ptr @_ZNKSt15__uniq_ptr_implIN5osgeo4proj9GTiffGridESt14default_deleteIS2_EE6_M_ptrEv(ptr noundef nonnull align 8 dereferenceable(8) %0) #0 comdat align 2 {
  %2 = alloca ptr, align 8
  store ptr %0, ptr %2, align 8, !tbaa !682
  %3 = load ptr, ptr %2, align 8
  %4 = getelementptr inbounds nuw %"class.std::__uniq_ptr_impl.63", ptr %3, i32 0, i32 0
  %5 = call noundef nonnull align 8 dereferenceable(8) ptr @_ZSt3getILm0EJPN5osgeo4proj9GTiffGridESt14default_deleteIS2_EEERKNSt13tuple_elementIXT_ESt5tupleIJDpT0_EEE4typeERKSA_(ptr noundef nonnull align 8 dereferenceable(8) %4) #6
  %6 = load ptr, ptr %5, align 8, !tbaa !123
  ret ptr %6
}

; Function Attrs: mustprogress nounwind uwtable
define linkonce_odr hidden noundef ptr @_ZNKSt10unique_ptrIN5osgeo4proj9GTiffGridESt14default_deleteIS2_EE3getEv(ptr noundef nonnull align 8 dereferenceable(8) %0) #0 comdat align 2 {
  %2 = alloca ptr, align 8
  store ptr %0, ptr %2, align 8, !tbaa !245
  %3 = load ptr, ptr %2, align 8
  %4 = getelementptr inbounds nuw %"class.std::unique_ptr.61", ptr %3, i32 0, i32 0
  %5 = call noundef ptr @_ZNKSt15__uniq_ptr_implIN5osgeo4proj9GTiffGridESt14default_deleteIS2_EE6_M_ptrEv(ptr noundef nonnull align 8 dereferenceable(8) %4) #6
  ret ptr %5
}

; Function Attrs: mustprogress nounwind uwtable
define linkonce_odr hidden noundef ptr @_ZNKSt10unique_ptrIN5osgeo4proj9GTiffGridESt14default_deleteIS2_EEptEv(ptr noundef nonnull align 8 dereferenceable(8) %0) #0 comdat align 2 {
  %2 = alloca ptr, align 8
  store ptr %0, ptr %2, align 8, !tbaa !245
  %3 = load ptr, ptr %2, align 8
  %4 = call noundef ptr @_ZNKSt10unique_ptrIN5osgeo4proj9GTiffGridESt14default_deleteIS2_EE3getEv(ptr noundef nonnull align 8 dereferenceable(8) %3) #6
  ret ptr %4
}

; Function Attrs: mustprogress uwtable
define hidden noundef zeroext i1 @_ZNK5osgeo4proj10GTiffHGrid7valueAtEiibRfS2_(ptr noundef nonnull align 8 dereferenceable(169) %0, i32 noundef %1, i32 noundef %2, i1 noundef zeroext %3, ptr noundef nonnull align 4 dereferenceable(4) %4, ptr noundef nonnull align 4 dereferenceable(4) %5) unnamed_addr #1 align 2 {
  %7 = alloca i1, align 1
  %8 = alloca ptr, align 8
  %9 = alloca i32, align 4
  %10 = alloca i32, align 4
  %11 = alloca i8, align 1
  %12 = alloca ptr, align 8
  %13 = alloca ptr, align 8
  store ptr %0, ptr %8, align 8, !tbaa !361
  store i32 %1, ptr %9, align 4, !tbaa !26
  store i32 %2, ptr %10, align 4, !tbaa !26
  %14 = zext i1 %3 to i8
  store i8 %14, ptr %11, align 1, !tbaa !38
  store ptr %4, ptr %12, align 8, !tbaa !50
  store ptr %5, ptr %13, align 8, !tbaa !50
  %15 = load ptr, ptr %8, align 8
  %16 = getelementptr inbounds nuw %"class.osgeo::proj::GTiffHGrid", ptr %15, i32 0, i32 1
  %17 = call noundef ptr @_ZNKSt10unique_ptrIN5osgeo4proj9GTiffGridESt14default_deleteIS2_EEptEv(ptr noundef nonnull align 8 dereferenceable(8) %16) #6
  %18 = getelementptr inbounds nuw %"class.osgeo::proj::GTiffHGrid", ptr %15, i32 0, i32 2
  %19 = load i16, ptr %18, align 8, !tbaa !363
  %20 = load i32, ptr %9, align 4, !tbaa !26
  %21 = load i32, ptr %10, align 4, !tbaa !26
  %22 = load ptr, ptr %13, align 8, !tbaa !50
  %23 = call noundef zeroext i1 @_ZNK5osgeo4proj9GTiffGrid7valueAtEtiiRf(ptr noundef nonnull align 8 dereferenceable(340) %17, i16 noundef zeroext %19, i32 noundef %20, i32 noundef %21, ptr noundef nonnull align 4 dereferenceable(4) %22)
  br i1 %23, label %24, label %33

24:                                               ; preds = %6
  %25 = getelementptr inbounds nuw %"class.osgeo::proj::GTiffHGrid", ptr %15, i32 0, i32 1
  %26 = call noundef ptr @_ZNKSt10unique_ptrIN5osgeo4proj9GTiffGridESt14default_deleteIS2_EEptEv(ptr noundef nonnull align 8 dereferenceable(8) %25) #6
  %27 = getelementptr inbounds nuw %"class.osgeo::proj::GTiffHGrid", ptr %15, i32 0, i32 3
  %28 = load i16, ptr %27, align 2, !tbaa !365
  %29 = load i32, ptr %9, align 4, !tbaa !26
  %30 = load i32, ptr %10, align 4, !tbaa !26
  %31 = load ptr, ptr %12, align 8, !tbaa !50
  %32 = call noundef zeroext i1 @_ZNK5osgeo4proj9GTiffGrid7valueAtEtiiRf(ptr noundef nonnull align 8 dereferenceable(340) %26, i16 noundef zeroext %28, i32 noundef %29, i32 noundef %30, ptr noundef nonnull align 4 dereferenceable(4) %31)
  br i1 %32, label %34, label %33

33:                                               ; preds = %24, %6
  store i1 false, ptr %7, align 1
  br label %60

34:                                               ; preds = %24
  %35 = load ptr, ptr %13, align 8, !tbaa !50
  %36 = load float, ptr %35, align 4, !tbaa !52
  %37 = fpext float %36 to double
  %38 = getelementptr inbounds nuw %"class.osgeo::proj::GTiffHGrid", ptr %15, i32 0, i32 5
  %39 = load double, ptr %38, align 8, !tbaa !366
  %40 = fmul double %37, %39
  %41 = fptrunc double %40 to float
  %42 = load ptr, ptr %13, align 8, !tbaa !50
  store float %41, ptr %42, align 4, !tbaa !52
  %43 = load ptr, ptr %12, align 8, !tbaa !50
  %44 = load float, ptr %43, align 4, !tbaa !52
  %45 = fpext float %44 to double
  %46 = getelementptr inbounds nuw %"class.osgeo::proj::GTiffHGrid", ptr %15, i32 0, i32 5
  %47 = load double, ptr %46, align 8, !tbaa !366
  %48 = fmul double %45, %47
  %49 = fptrunc double %48 to float
  %50 = load ptr, ptr %12, align 8, !tbaa !50
  store float %49, ptr %50, align 4, !tbaa !52
  %51 = getelementptr inbounds nuw %"class.osgeo::proj::GTiffHGrid", ptr %15, i32 0, i32 6
  %52 = load i8, ptr %51, align 8, !tbaa !367, !range !16, !noundef !17
  %53 = trunc i8 %52 to i1
  br i1 %53, label %59, label %54

54:                                               ; preds = %34
  %55 = load ptr, ptr %12, align 8, !tbaa !50
  %56 = load float, ptr %55, align 4, !tbaa !52
  %57 = fneg float %56
  %58 = load ptr, ptr %12, align 8, !tbaa !50
  store float %57, ptr %58, align 4, !tbaa !52
  br label %59

59:                                               ; preds = %54, %34
  store i1 true, ptr %7, align 1
  br label %60

60:                                               ; preds = %59, %33
  %61 = load i1, ptr %7, align 1
  ret i1 %61
}