; Function Attrs: mustprogress uwtable
define hidden noundef zeroext i1 @_ZNK5osgeo4proj10GTiffHGrid7valueAtEiibRfS2_(ptr noundef nonnull readonly align 8 captures(none) dereferenceable(169) %0, i32 noundef %1, i32 noundef %2, i1 zeroext %3, ptr noundef nonnull align 4 captures(none) dereferenceable(4) %4, ptr noundef nonnull align 4 captures(none) dereferenceable(4) %5) unnamed_addr #2 align 2 {
  %7 = getelementptr inbounds nuw i8, ptr %0, i64 144
  %8 = load ptr, ptr %7, align 8, !tbaa !238
  %9 = getelementptr inbounds nuw i8, ptr %0, i64 152
  %10 = load i16, ptr %9, align 8, !tbaa !340
  %11 = tail call noundef zeroext i1 @_ZNK5osgeo4proj9GTiffGrid7valueAtEtiiRf(ptr noundef nonnull align 8 dereferenceable(340) %8, i16 noundef zeroext %10, i32 noundef %1, i32 noundef %2, ptr noundef nonnull align 4 dereferenceable(4) %5)
  br i1 %11, label %12, label %33

12:                                               ; preds = %6
  %13 = load ptr, ptr %7, align 8, !tbaa !238
  %14 = getelementptr inbounds nuw i8, ptr %0, i64 154
  %15 = load i16, ptr %14, align 2, !tbaa !342
  %16 = tail call noundef zeroext i1 @_ZNK5osgeo4proj9GTiffGrid7valueAtEtiiRf(ptr noundef nonnull align 8 dereferenceable(340) %13, i16 noundef zeroext %15, i32 noundef %1, i32 noundef %2, ptr noundef nonnull align 4 dereferenceable(4) %4)
  br i1 %16, label %17, label %33

17:                                               ; preds = %12
  %18 = load float, ptr %5, align 4, !tbaa !38
  %19 = fpext float %18 to double
  %20 = getelementptr inbounds nuw i8, ptr %0, i64 160
  %21 = load double, ptr %20, align 8, !tbaa !343
  %22 = fmul double %21, %19
  %23 = fptrunc double %22 to float
  store float %23, ptr %5, align 4, !tbaa !38
  %24 = load float, ptr %4, align 4, !tbaa !38
  %25 = fpext float %24 to double
  %26 = fmul double %21, %25
  %27 = fptrunc double %26 to float
  store float %27, ptr %4, align 4, !tbaa !38
  %28 = getelementptr inbounds nuw i8, ptr %0, i64 168
  %29 = load i8, ptr %28, align 8, !tbaa !344, !range !13, !noundef !14
  %30 = trunc nuw i8 %29 to i1
  br i1 %30, label %33, label %31

31:                                               ; preds = %17
  %32 = fneg float %27
  store float %32, ptr %4, align 4, !tbaa !38
  br label %33

33:                                               ; preds = %17, %31, %6, %12
  %.0 = phi i1 [ false, %12 ], [ false, %6 ], [ true, %31 ], [ true, %17 ]
  ret i1 %.0
}